; ModuleID = 'source-C-CXX/27/956.c'
source_filename = "source-C-CXX/27/956.c"
target datalayout = "e-m:e-p270:32:32-p271:32:32-p272:64:64-i64:64-f80:128-n8:16:32:64-S128"
target triple = "x86_64-pc-linux-gnu"

@a = dso_local global [300 x i8] zeroinitializer, align 16
@.str = private unnamed_addr constant [3 x i8] c"%d\00", align 1
@.str.1 = private unnamed_addr constant [4 x i8] c",%d\00", align 1

; Function Attrs: nounwind sspstrong uwtable
define dso_local i32 @main() local_unnamed_addr #0 {
  %1 = tail call i32 (i8*, ...) bitcast (i32 (...)* @gets to i32 (i8*, ...)*)(i8* getelementptr inbounds ([300 x i8], [300 x i8]* @a, i64 0, i64 0)) #4
  %2 = tail call i64 @strlen(i8* noundef nonnull dereferenceable(1) getelementptr inbounds ([300 x i8], [300 x i8]* @a, i64 0, i64 0)) #5
  %3 = trunc i64 %2 to i32
  %4 = icmp sgt i32 %3, 0
  br i1 %4, label %5, label %34

5:                                                ; preds = %0, %26
  %6 = phi i32 [ %32, %26 ], [ 0, %0 ]
  %7 = phi i64 [ %21, %26 ], [ 0, %0 ]
  %8 = shl i64 %7, 32
  %9 = ashr exact i64 %8, 32
  br label %10

10:                                               ; preds = %10, %5
  %11 = phi i64 [ %15, %10 ], [ %9, %5 ]
  %12 = getelementptr inbounds [300 x i8], [300 x i8]* @a, i64 0, i64 %11
  %13 = load i8, i8* %12, align 1, !tbaa !5
  %14 = icmp eq i8 %13, 32
  %15 = add i64 %11, 1
  br i1 %14, label %10, label %16, !llvm.loop !8

16:                                               ; preds = %10
  %17 = trunc i64 %11 to i32
  %18 = shl i64 %11, 32
  %19 = ashr exact i64 %18, 32
  br label %20

20:                                               ; preds = %16, %24
  %21 = phi i64 [ %19, %16 ], [ %25, %24 ]
  %22 = getelementptr inbounds [300 x i8], [300 x i8]* @a, i64 0, i64 %21
  %23 = load i8, i8* %22, align 1, !tbaa !5
  switch i8 %23, label %24 [
    i8 32, label %26
    i8 0, label %26
  ]

24:                                               ; preds = %20
  %25 = add i64 %21, 1
  br label %20, !llvm.loop !10

26:                                               ; preds = %20, %20
  %27 = trunc i64 %21 to i32
  %28 = icmp eq i32 %6, 0
  %29 = sub nsw i32 %27, %17
  %30 = select i1 %28, i8* getelementptr inbounds ([3 x i8], [3 x i8]* @.str, i64 0, i64 0), i8* getelementptr inbounds ([4 x i8], [4 x i8]* @.str.1, i64 0, i64 0)
  %31 = tail call i32 (i8*, ...) @printf(i8* nonnull dereferenceable(1) %30, i32 %29)
  %32 = add nuw nsw i32 %6, 1
  %33 = icmp slt i32 %27, %3
  br i1 %33, label %5, label %34, !llvm.loop !11

34:                                               ; preds = %26, %0
  ret i32 0
}

declare i32 @gets(...) local_unnamed_addr #1

; Function Attrs: argmemonly mustprogress nofree nounwind readonly willreturn
declare i64 @strlen(i8* nocapture) local_unnamed_addr #2

; Function Attrs: nofree nounwind
declare noundef i32 @printf(i8* nocapture noundef readonly, ...) local_unnamed_addr #3


!llvm.module.flags = !{!0, !1, !2, !3}
!llvm.ident = !{!4}

!0 = !{i32 1, !"wchar_size", i32 4}
!1 = !{i32 7, !"PIC Level", i32 2}
!2 = !{i32 7, !"PIE Level", i32 2}
!3 = !{i32 7, !"uwtable", i32 1}
!4 = !{!"clang version 13.0.0"}
!5 = !{!6, !6, i64 0}
!6 = !{!"omnipotent char", !7, i64 0}
!7 = !{!"Simple C/C++ TBAA"}
!8 = distinct !{!8, !9}
!9 = !{!"llvm.loop.mustprogress"}
!10 = distinct !{!10, !9}
!11 = distinct !{!11, !9}
